target datalayout = "e-m:e-p270:32:32-p271:32:32-p272:64:64-i64:64-i128:128-f80:128-n8:16:32:64-S128"
target triple = "x86_64-pc-linux-gnu"

%struct.rb_shape = type { ptr, i64, i32, i32, i8, i8, i32, ptr }

; Function Attrs: nounwind sspstrong uwtable
define dso_local i64 @rb_shape_edges_count(ptr noundef %0) #0 {
  %2 = alloca i64, align 8
  %3 = alloca ptr, align 8
  store ptr %0, ptr %3, align 8, !tbaa !16
  %4 = load ptr, ptr %3, align 8, !tbaa !16
  %5 = getelementptr inbounds nuw %struct.rb_shape, ptr %4, i32 0, i32 0
  %6 = load ptr, ptr %5, align 8, !tbaa !51
  %7 = icmp ne ptr %6, null
  br i1 %7, label %8, label %21

8:                                                ; preds = %1
  %9 = load ptr, ptr %3, align 8, !tbaa !16
  %10 = getelementptr inbounds nuw %struct.rb_shape, ptr %9, i32 0, i32 0
  %11 = load ptr, ptr %10, align 8, !tbaa !51
  %12 = ptrtoint ptr %11 to i64
  %13 = and i64 %12, 1
  %14 = icmp ne i64 %13, 0
  br i1 %14, label %15, label %16

15:                                               ; preds = %8
  store i64 1, ptr %2, align 8
  br label %22

16:                                               ; preds = %8
  %17 = load ptr, ptr %3, align 8, !tbaa !16
  %18 = getelementptr inbounds nuw %struct.rb_shape, ptr %17, i32 0, i32 0
  %19 = load ptr, ptr %18, align 8, !tbaa !51
  %20 = call i64 @rb_id_table_size(ptr noundef %19)
  store i64 %20, ptr %2, align 8
  br label %22

21:                                               ; preds = %1
  store i64 0, ptr %2, align 8
  br label %22

22:                                               ; preds = %21, %16, %15
  %23 = load i64, ptr %2, align 8
  ret i64 %23
}