; Function Attrs: nounwind sspstrong uwtable
define dso_local i64 @rb_shape_edges_count(ptr noundef readonly captures(none) %0) local_unnamed_addr #1 {
  %2 = load ptr, ptr %0, align 8, !tbaa !46
  %.not = icmp eq ptr %2, null
  br i1 %.not, label %8, label %3

3:                                                ; preds = %1
  %4 = ptrtoint ptr %2 to i64
  %5 = and i64 %4, 1
  %.not4 = icmp eq i64 %5, 0
  br i1 %.not4, label %6, label %8

6:                                                ; preds = %3
  %7 = tail call i64 @rb_id_table_size(ptr noundef nonnull %2) #15
  br label %8

8:                                                ; preds = %1, %3, %6
  %.0 = phi i64 [ %7, %6 ], [ 1, %3 ], [ 0, %1 ]
  ret i64 %.0
}